Certificate:
    Data:
        Version: 3 (0x2)
        Serial Number: 1 (0x1)
    Signature Algorithm: md5WithRSAEncryption
        Issuer: C=US, ST=GA, L=ATL, O=widget, OU=design, CN=ca/emailAddress=ca@widget.com
        Validity
            Not Before: Jul 16 06:59:42 2013 GMT
            Not After : Jul 16 06:59:42 2014 GMT
        Subject: C=US, ST=GA, O=widget, OU=Design, CN=Alice
        Subject Public Key Info:
            Public Key Algorithm: rsaEncryption
                Public-Key: (1024 bit)
                Modulus:
                    00:d7:3b:2e:c5:07:b7:48:bd:10:a5:a3:17:05:ac:
                    1b:1e:10:26:bb:90:7c:9e:04:b1:5c:3f:26:2e:15:
                    a2:44:e1:d8:60:7f:31:68:64:a0:ab:66:97:8a:b5:
                    e3:85:e4:4d:48:23:25:d6:b2:20:71:a4:15:83:c0:
                    f1:27:36:fc:0f:cc:10:90:af:f3:84:40:73:f1:95:
                    25:81:95:b1:78:60:b8:80:b6:52:12:b5:ad:dc:44:
                    2e:5f:be:e2:ee:eb:70:d7:3b:e3:9a:ed:19:46:64:
                    32:c8:8e:c5:fb:83:00:03:e8:79:ff:73:9c:84:65:
                    1f:54:09:cd:1a:21:6f:d5:01
                Exponent: 65537 (0x10001)
        X509v3 extensions:
            X509v3 Basic Constraints: 
                CA:FALSE
            Netscape Comment: 
                OpenSSL Generated Certificate
            X509v3 Subject Key Identifier: 
                A4:C3:26:75:91:ED:25:C8:12:1C:00:FD:BC:03:EF:24:66:72:19:46
            X509v3 Authority Key Identifier: 
                keyid:C2:3C:44:83:85:5D:A5:20:C1:5D:08:E9:9D:8A:28:0D:89:F8:6B:2C
                DirName:/C=US/ST=GA/L=ATL/O=widget/OU=design/CN=ca/emailAddress=ca@widget.com
                serial:FD:44:AF:46:AA:01:46:9E

    Signature Algorithm: md5WithRSAEncryption
         08:de:60:34:c2:4a:2a:0e:ac:87:ed:e2:23:76:37:c6:1c:8b:
         cc:35:56:68:cb:2f:0e:d9:6e:ad:31:94:1f:45:cd:78:b0:be:
         97:ad:f0:bd:81:d3:27:a8:c1:a4:6f:09:0b:90:90:d0:da:6d:
         a8:98:11:e6:2e:00:ab:6f:1e:93:fd:31:46:da:55:88:1d:d4:
         60:a8:63:4a:2d:3c:80:1a:df:a0:94:df:c7:58:0c:b1:ad:fe:
         1b:16:58:c8:4d:c8:fb:d9:51:60:db:b8:0a:bc:6a:47:d5:c4:
         8f:0c:ff:fb:72:ac:30:8a:e0:92:b0:e6:98:e7:6f:a4:95:5c:
         fa:fe
-----BEGIN CERTIFICATE-----
MIIDPzCCAqigAwIBAgIBATANBgkqhkiG9w0BAQQFADB1MQswCQYDVQQGEwJVUzEL
MAkGA1UECBMCR0ExDDAKBgNVBAcTA0FUTDEPMA0GA1UEChMGd2lkZ2V0MQ8wDQYD
VQQLEwZkZXNpZ24xCzAJBgNVBAMTAmNhMRwwGgYJKoZIhvcNAQkBFg1jYUB3aWRn
ZXQuY29tMB4XDTEzMDcxNjA2NTk0MloXDTE0MDcxNjA2NTk0MlowTDELMAkGA1UE
BhMCVVMxCzAJBgNVBAgTAkdBMQ8wDQYDVQQKEwZ3aWRnZXQxDzANBgNVBAsTBkRl
c2lnbjEOMAwGA1UEAxMFQWxpY2UwgZ8wDQYJKoZIhvcNAQEBBQADgY0AMIGJAoGB
ANc7LsUHt0i9EKWjFwWsGx4QJruQfJ4EsVw/Ji4VokTh2GB/MWhkoKtml4q144Xk
TUgjJdayIHGkFYPA8Sc2/A/MEJCv84RAc/GVJYGVsXhguIC2UhK1rdxELl++4u7r
cNc745rtGUZkMsiOxfuDAAPoef9znIRlH1QJzRohb9UBAgMBAAGjggEGMIIBAjAJ
BgNVHRMEAjAAMCwGCWCGSAGG+EIBDQQfFh1PcGVuU1NMIEdlbmVyYXRlZCBDZXJ0
aWZpY2F0ZTAdBgNVHQ4EFgQUpMMmdZHtJcgSHAD9vAPvJGZyGUYwgacGA1UdIwSB
nzCBnIAUwjxEg4VdpSDBXQjpnYooDYn4ayyheaR3MHUxCzAJBgNVBAYTAlVTMQsw
CQYDVQQIEwJHQTEMMAoGA1UEBxMDQVRMMQ8wDQYDVQQKEwZ3aWRnZXQxDzANBgNV
BAsTBmRlc2lnbjELMAkGA1UEAxMCY2ExHDAaBgkqhkiG9w0BCQEWDWNhQHdpZGdl
dC5jb22CCQD9RK9GqgFGnjANBgkqhkiG9w0BAQQFAAOBgQAI3mA0wkoqDqyH7eIj
djfGHIvMNVZoyy8O2W6tMZQfRc14sL6XrfC9gdMnqMGkbwkLkJDQ2m2omBHmLgCr
bx6T/TFG2lWIHdRgqGNKLTyAGt+glN/HWAyxrf4bFljITcj72VFg27gKvGpH1cSP
DP/7cqwwiuCSsOaY52+klVz6/g==
-----END CERTIFICATE-----
