Certificate:
    Data:
        Version: 3 (0x2)
        Serial Number: 2 (0x2)
    Signature Algorithm: md5WithRSAEncryption
        Issuer: C=US, ST=GA, L=ATL, O=widget, OU=design, CN=ca/emailAddress=ca@widget.com
        Validity
            Not Before: Jul 16 07:00:51 2013 GMT
            Not After : Jul 16 07:00:51 2014 GMT
        Subject: C=US, ST=GA, O=widget, OU=design, CN=Bob
        Subject Public Key Info:
            Public Key Algorithm: rsaEncryption
                Public-Key: (1024 bit)
                Modulus:
                    00:8a:32:76:69:4c:02:30:21:7c:d0:48:ca:3a:f9:
                    3a:87:da:e4:42:b2:7e:c1:12:d1:43:6c:43:3f:97:
                    ea:49:4c:c3:c8:88:30:e3:64:45:ea:39:a6:85:e3:
                    76:40:0e:7b:c6:ae:7c:59:b6:fb:e5:cb:e2:c4:b8:
                    e5:53:a8:0b:f2:e7:b2:5d:6c:31:f5:0d:91:1c:19:
                    24:ae:5a:aa:8a:c0:76:8e:a9:0c:b7:63:f5:25:6b:
                    f7:52:47:bf:b5:f2:c3:90:62:61:81:42:a3:47:03:
                    f8:46:14:1c:ad:02:46:8d:63:0e:55:99:5e:07:b1:
                    16:93:ad:7b:44:b5:20:9a:53
                Exponent: 65537 (0x10001)
        X509v3 extensions:
            X509v3 Basic Constraints: 
                CA:FALSE
            Netscape Comment: 
                OpenSSL Generated Certificate
            X509v3 Subject Key Identifier: 
                F8:33:95:55:04:8A:CE:A2:38:64:32:D0:FC:AE:16:E2:68:26:F1:90
            X509v3 Authority Key Identifier: 
                keyid:C2:3C:44:83:85:5D:A5:20:C1:5D:08:E9:9D:8A:28:0D:89:F8:6B:2C
                DirName:/C=US/ST=GA/L=ATL/O=widget/OU=design/CN=ca/emailAddress=ca@widget.com
                serial:FD:44:AF:46:AA:01:46:9E

    Signature Algorithm: md5WithRSAEncryption
         55:97:39:0a:bd:8c:f1:91:fd:49:8a:b2:a6:c9:bd:2f:9e:b9:
         1f:d7:43:0e:88:25:58:62:e2:07:91:f0:84:d0:3a:31:86:97:
         ab:cd:3a:54:69:0c:07:35:94:06:41:cb:8a:45:23:74:6d:8c:
         bf:24:c8:50:4a:c7:06:59:91:05:de:42:44:05:62:1f:4a:61:
         e3:b6:15:43:1e:41:f8:6f:73:00:1c:f4:0d:2c:2d:66:1a:f0:
         97:9e:24:6a:3d:c9:42:91:26:d8:53:ad:6d:1d:68:8c:22:66:
         51:1b:9e:43:ce:37:40:fb:45:88:fb:60:d1:59:06:38:f7:04:
         67:f1
-----BEGIN CERTIFICATE-----
MIIDPTCCAqagAwIBAgIBAjANBgkqhkiG9w0BAQQFADB1MQswCQYDVQQGEwJVUzEL
MAkGA1UECBMCR0ExDDAKBgNVBAcTA0FUTDEPMA0GA1UEChMGd2lkZ2V0MQ8wDQYD
VQQLEwZkZXNpZ24xCzAJBgNVBAMTAmNhMRwwGgYJKoZIhvcNAQkBFg1jYUB3aWRn
ZXQuY29tMB4XDTEzMDcxNjA3MDA1MVoXDTE0MDcxNjA3MDA1MVowSjELMAkGA1UE
BhMCVVMxCzAJBgNVBAgTAkdBMQ8wDQYDVQQKEwZ3aWRnZXQxDzANBgNVBAsTBmRl
c2lnbjEMMAoGA1UEAxMDQm9iMIGfMA0GCSqGSIb3DQEBAQUAA4GNADCBiQKBgQCK
MnZpTAIwIXzQSMo6+TqH2uRCsn7BEtFDbEM/l+pJTMPIiDDjZEXqOaaF43ZADnvG
rnxZtvvly+LEuOVTqAvy57JdbDH1DZEcGSSuWqqKwHaOqQy3Y/Ula/dSR7+18sOQ
YmGBQqNHA/hGFBytAkaNYw5VmV4HsRaTrXtEtSCaUwIDAQABo4IBBjCCAQIwCQYD
VR0TBAIwADAsBglghkgBhvhCAQ0EHxYdT3BlblNTTCBHZW5lcmF0ZWQgQ2VydGlm
aWNhdGUwHQYDVR0OBBYEFPgzlVUEis6iOGQy0PyuFuJoJvGQMIGnBgNVHSMEgZ8w
gZyAFMI8RIOFXaUgwV0I6Z2KKA2J+GssoXmkdzB1MQswCQYDVQQGEwJVUzELMAkG
A1UECBMCR0ExDDAKBgNVBAcTA0FUTDEPMA0GA1UEChMGd2lkZ2V0MQ8wDQYDVQQL
EwZkZXNpZ24xCzAJBgNVBAMTAmNhMRwwGgYJKoZIhvcNAQkBFg1jYUB3aWRnZXQu
Y29tggkA/USvRqoBRp4wDQYJKoZIhvcNAQEEBQADgYEAVZc5Cr2M8ZH9SYqypsm9
L565H9dDDoglWGLiB5HwhNA6MYaXq806VGkMBzWUBkHLikUjdG2MvyTIUErHBlmR
Bd5CRAViH0ph47YVQx5B+G9zABz0DSwtZhrwl54kaj3JQpEm2FOtbR1ojCJmURue
Q843QPtFiPtg0VkGOPcEZ/E=
-----END CERTIFICATE-----
